; Function Attrs: mustprogress uwtable
define hidden void @_ZNK2pb10constraint11display_litERSoRKNS_16solver_interfaceEN3sat7literalEjb(ptr nonnull readnone align 8 captures(none) %0, ptr noundef nonnull align 8 dereferenceable(8) %1, ptr noundef nonnull align 8 dereferenceable(8) %2, i32 %3, i32 noundef %4, i1 noundef zeroext %5) local_unnamed_addr #8 align 2 {
  %.not20 = icmp eq i32 %3, -2
  br i1 %.not20, label %40, label %7

7:                                                ; preds = %6
  %8 = and i32 %3, 1
  %.not.not.i = icmp eq i32 %8, 0
  %9 = select i1 %.not.not.i, ptr @.str.15, ptr @.str.14
  %10 = zext nneg i32 %8 to i64
  %11 = tail call noundef nonnull align 8 dereferenceable(8) ptr @_ZSt16__ostream_insertIcSt11char_traitsIcEERSt13basic_ostreamIT_T0_ES6_PKS3_l(ptr noundef nonnull align 8 dereferenceable(8) %1, ptr noundef nonnull %9, i64 noundef %10)
  %12 = lshr i32 %3, 1
  %13 = zext nneg i32 %12 to i64
  %14 = tail call noundef nonnull align 8 dereferenceable(8) ptr @_ZNSo9_M_insertImEERSoT_(ptr noundef nonnull align 8 dereferenceable(8) %1, i64 noundef %13)
  br i1 %5, label %_ZN3satlsERSoNS_7literalE.exit, label %_ZN3satlsERSoNS_7literalE.exit14

_ZN3satlsERSoNS_7literalE.exit:                   ; preds = %7
  %15 = tail call noundef nonnull align 8 dereferenceable(8) ptr @_ZSt16__ostream_insertIcSt11char_traitsIcEERSt13basic_ostreamIT_T0_ES6_PKS3_l(ptr noundef nonnull align 8 dereferenceable(8) %1, ptr noundef nonnull @.str.2, i64 noundef 1)
  %16 = zext i32 %4 to i64
  %17 = tail call noundef nonnull align 8 dereferenceable(8) ptr @_ZNSo9_M_insertImEERSoT_(ptr noundef nonnull align 8 dereferenceable(8) %1, i64 noundef %16)
  %18 = tail call noundef nonnull align 8 dereferenceable(8) ptr @_ZSt16__ostream_insertIcSt11char_traitsIcEERSt13basic_ostreamIT_T0_ES6_PKS3_l(ptr noundef nonnull align 8 dereferenceable(8) %17, ptr noundef nonnull @.str.3, i64 noundef 1)
  %19 = tail call noundef nonnull align 8 dereferenceable(8) ptr @_ZSt16__ostream_insertIcSt11char_traitsIcEERSt13basic_ostreamIT_T0_ES6_PKS3_l(ptr noundef nonnull align 8 dereferenceable(8) %1, ptr noundef nonnull @.str.4, i64 noundef 2)
  %20 = load ptr, ptr %2, align 8, !tbaa !26
  %21 = getelementptr inbounds nuw i8, ptr %20, i64 24
  %22 = load ptr, ptr %21, align 8
  %23 = tail call noundef i32 %22(ptr noundef nonnull align 8 dereferenceable(8) %2, i32 %3)
  %24 = tail call noundef nonnull align 8 dereferenceable(8) ptr @_ZlsRSo5lbool(ptr noundef nonnull align 8 dereferenceable(8) %1, i32 noundef %23)
  %25 = load ptr, ptr %2, align 8, !tbaa !26
  %26 = getelementptr inbounds nuw i8, ptr %25, i64 24
  %27 = load ptr, ptr %26, align 8
  %28 = tail call noundef i32 %27(ptr noundef nonnull align 8 dereferenceable(8) %2, i32 %3)
  %.not = icmp eq i32 %28, 0
  br i1 %.not, label %37, label %29

29:                                               ; preds = %_ZN3satlsERSoNS_7literalE.exit
  %30 = tail call noundef nonnull align 8 dereferenceable(8) ptr @_ZSt16__ostream_insertIcSt11char_traitsIcEERSt13basic_ostreamIT_T0_ES6_PKS3_l(ptr noundef nonnull align 8 dereferenceable(8) %1, ptr noundef nonnull @.str.5, i64 noundef 1)
  %31 = load ptr, ptr %2, align 8, !tbaa !26
  %32 = getelementptr inbounds nuw i8, ptr %31, i64 40
  %33 = load ptr, ptr %32, align 8
  %34 = tail call noundef i32 %33(ptr noundef nonnull align 8 dereferenceable(8) %2, i32 %3)
  %35 = zext i32 %34 to i64
  %36 = tail call noundef nonnull align 8 dereferenceable(8) ptr @_ZNSo9_M_insertImEERSoT_(ptr noundef nonnull align 8 dereferenceable(8) %1, i64 noundef %35)
  br label %37

37:                                               ; preds = %29, %_ZN3satlsERSoNS_7literalE.exit
  %38 = tail call noundef nonnull align 8 dereferenceable(8) ptr @_ZSt16__ostream_insertIcSt11char_traitsIcEERSt13basic_ostreamIT_T0_ES6_PKS3_l(ptr noundef nonnull align 8 dereferenceable(8) %1, ptr noundef nonnull @.str.6, i64 noundef 3)
  br label %40

_ZN3satlsERSoNS_7literalE.exit14:                 ; preds = %7
  %39 = tail call noundef nonnull align 8 dereferenceable(8) ptr @_ZSt16__ostream_insertIcSt11char_traitsIcEERSt13basic_ostreamIT_T0_ES6_PKS3_l(ptr noundef nonnull align 8 dereferenceable(8) %1, ptr noundef nonnull @.str.7, i64 noundef 4)
  br label %40

40:                                               ; preds = %37, %_ZN3satlsERSoNS_7literalE.exit14, %6
  ret void
}